target datalayout = "e-m:e-p270:32:32-p271:32:32-p272:64:64-i64:64-i128:128-f80:128-n8:16:32:64-S128"
target triple = "x86_64-pc-linux-gnu"

%struct.b2WorldId = type { i16, i16 }
%struct.b2JointId = type { i32, i16, i16 }
%struct.b2BodyId = type { i32, i16, i16 }
%struct.b2Vec2 = type { float, float }
%struct.b2Profile = type { float, float, float, float, float, float, float, float, float, float, float, float, float, float, float, float, float, float, float, float, float, float }
%class.Sample = type { ptr, ptr, ptr, ptr, i32, i32, %struct.b2BodyId, i32, %struct.b2WorldId, %struct.b2JointId, i32, i32, %struct.b2Profile, %struct.b2Profile }

@_ZL14b2_nullJointId = internal constant %struct.b2JointId zeroinitializer, align 4
@_ZL13b2_nullBodyId = internal constant %struct.b2BodyId zeroinitializer, align 4

; Function Attrs: mustprogress uwtable
define dso_local void @_ZN6Sample7MouseUpE6b2Vec2i(ptr noundef nonnull align 8 dereferenceable(248) %0, <2 x float> %1, i32 noundef %2) unnamed_addr #10 align 2 {
  %4 = alloca %struct.b2Vec2, align 4
  %5 = alloca ptr, align 8
  %6 = alloca i32, align 4
  %7 = alloca %struct.b2JointId, align 4
  %8 = alloca %struct.b2JointId, align 4
  %9 = alloca %struct.b2BodyId, align 4
  store <2 x float> %1, ptr %4, align 4
  store ptr %0, ptr %5, align 8, !tbaa !15
  store i32 %2, ptr %6, align 4, !tbaa !11
  %10 = load ptr, ptr %5, align 8
  %11 = getelementptr inbounds nuw %class.Sample, ptr %10, i32 0, i32 9
  call void @llvm.memcpy.p0.p0.i64(ptr align 4 %7, ptr align 8 %11, i64 8, i1 false), !tbaa.struct !40
  %12 = load i64, ptr %7, align 4
  %13 = call zeroext i1 @b2Joint_IsValid(i64 %12)
  %14 = zext i1 %13 to i32
  %15 = icmp eq i32 %14, 0
  br i1 %15, label %16, label %18

16:                                               ; preds = %3
  %17 = getelementptr inbounds nuw %class.Sample, ptr %10, i32 0, i32 9
  call void @llvm.memcpy.p0.p0.i64(ptr align 8 %17, ptr align 4 @_ZL14b2_nullJointId, i64 8, i1 false), !tbaa.struct !40
  br label %18

18:                                               ; preds = %16, %3
  %19 = getelementptr inbounds nuw %class.Sample, ptr %10, i32 0, i32 9
  %20 = getelementptr inbounds nuw %struct.b2JointId, ptr %19, i32 0, i32 0
  %21 = load i32, ptr %20, align 8, !tbaa !77
  %22 = icmp ne i32 %21, 0
  br i1 %22, label %23, label %33

23:                                               ; preds = %18
  %24 = load i32, ptr %6, align 4, !tbaa !11
  %25 = icmp eq i32 %24, 0
  br i1 %25, label %26, label %33

26:                                               ; preds = %23
  %27 = getelementptr inbounds nuw %class.Sample, ptr %10, i32 0, i32 9
  call void @llvm.memcpy.p0.p0.i64(ptr align 4 %8, ptr align 8 %27, i64 8, i1 false), !tbaa.struct !40
  %28 = load i64, ptr %8, align 4
  call void @b2DestroyJoint(i64 %28)
  %29 = getelementptr inbounds nuw %class.Sample, ptr %10, i32 0, i32 9
  call void @llvm.memcpy.p0.p0.i64(ptr align 8 %29, ptr align 4 @_ZL14b2_nullJointId, i64 8, i1 false), !tbaa.struct !40
  %30 = getelementptr inbounds nuw %class.Sample, ptr %10, i32 0, i32 6
  call void @llvm.memcpy.p0.p0.i64(ptr align 4 %9, ptr align 8 %30, i64 8, i1 false), !tbaa.struct !40
  %31 = load i64, ptr %9, align 4
  call void @b2DestroyBody(i64 %31)
  %32 = getelementptr inbounds nuw %class.Sample, ptr %10, i32 0, i32 6
  call void @llvm.memcpy.p0.p0.i64(ptr align 8 %32, ptr align 4 @_ZL13b2_nullBodyId, i64 8, i1 false), !tbaa.struct !40
  br label %33

33:                                               ; preds = %26, %23, %18
  ret void
}