; Function Attrs: mustprogress uwtable
define dso_local void @_ZN6Sample7MouseUpE6b2Vec2i(ptr noundef nonnull align 8 captures(none) dereferenceable(248) %0, <2 x float> %1, i32 noundef %2) unnamed_addr #5 align 2 {
  %4 = getelementptr inbounds nuw i8, ptr %0, i64 56
  %.sroa.03.0.copyload = load i64, ptr %4, align 8
  %5 = tail call zeroext i1 @b2Joint_IsValid(i64 %.sroa.03.0.copyload)
  br i1 %5, label %6, label %.thread

.thread:                                          ; preds = %3
  store i64 0, ptr %4, align 8
  br label %11

6:                                                ; preds = %3
  %.pre = load i32, ptr %4, align 8, !tbaa !61
  %7 = icmp ne i32 %.pre, 0
  %8 = icmp eq i32 %2, 0
  %or.cond = and i1 %8, %7
  br i1 %or.cond, label %9, label %11

9:                                                ; preds = %6
  %.sroa.02.0.copyload = load i64, ptr %4, align 8
  tail call void @b2DestroyJoint(i64 %.sroa.02.0.copyload)
  store i64 0, ptr %4, align 8
  %10 = getelementptr inbounds nuw i8, ptr %0, i64 40
  %.sroa.0.0.copyload = load i64, ptr %10, align 8
  tail call void @b2DestroyBody(i64 %.sroa.0.0.copyload)
  store i64 0, ptr %10, align 8
  br label %11

11:                                               ; preds = %.thread, %9, %6
  ret void
}